target datalayout = "e-m:e-p270:32:32-p271:32:32-p272:64:64-i64:64-i128:128-f80:128-n8:16:32:64-S128"
target triple = "x86_64-pc-linux-gnu"

%struct.hwloc_topology = type { i32, i32, i32, ptr, ptr, i64, [20 x i32], [20 x i32], i64, i64, i32, ptr, i64, ptr, i64, [6 x %struct.hwloc_special_level_s], ptr, ptr, %struct.hwloc_binding_hooks, %struct.hwloc_topology_support, %struct.hwloc_infos_s, ptr, ptr, i32, ptr, ptr, i32, i32, ptr, i32, i32, ptr, i32, i32, i32, [5 x float], i32, ptr, ptr, i32, i32, ptr, i32, %struct.hwloc_numanode_attr_s, i32, i32, ptr, i64, i32, ptr, ptr, ptr }
%struct.hwloc_special_level_s = type { i32, ptr, ptr, ptr }
%struct.hwloc_binding_hooks = type { ptr, ptr, ptr, ptr, ptr, ptr, ptr, ptr, ptr, ptr, ptr, ptr, ptr, ptr, ptr, ptr, ptr, ptr, ptr, ptr, ptr, ptr, ptr, ptr }
%struct.hwloc_topology_support = type { ptr, ptr, ptr, ptr }
%struct.hwloc_infos_s = type { ptr, i32, i32 }
%struct.hwloc_numanode_attr_s = type { i64, i32, ptr }
%struct.hwloc_internal_distances_s = type { ptr, i32, i32, ptr, i32, ptr, ptr, i64, i32, ptr, ptr, ptr }

; Function Attrs: nounwind uwtable
define internal void @hwloc_internal_distances_free(ptr noundef %0) #0 {
  %2 = alloca ptr, align 8
  store ptr %0, ptr %2, align 8, !tbaa !46
  %3 = load ptr, ptr %2, align 8, !tbaa !46
  %4 = getelementptr inbounds nuw %struct.hwloc_internal_distances_s, ptr %3, i32 0, i32 0
  %5 = load ptr, ptr %4, align 8, !tbaa !53
  call void @free(ptr noundef %5) #15
  %6 = load ptr, ptr %2, align 8, !tbaa !46
  %7 = getelementptr inbounds nuw %struct.hwloc_internal_distances_s, ptr %6, i32 0, i32 3
  %8 = load ptr, ptr %7, align 8, !tbaa !54
  call void @free(ptr noundef %8) #15
  %9 = load ptr, ptr %2, align 8, !tbaa !46
  %10 = getelementptr inbounds nuw %struct.hwloc_internal_distances_s, ptr %9, i32 0, i32 5
  %11 = load ptr, ptr %10, align 8, !tbaa !55
  call void @free(ptr noundef %11) #15
  %12 = load ptr, ptr %2, align 8, !tbaa !46
  %13 = getelementptr inbounds nuw %struct.hwloc_internal_distances_s, ptr %12, i32 0, i32 9
  %14 = load ptr, ptr %13, align 8, !tbaa !56
  call void @free(ptr noundef %14) #15
  %15 = load ptr, ptr %2, align 8, !tbaa !46
  %16 = getelementptr inbounds nuw %struct.hwloc_internal_distances_s, ptr %15, i32 0, i32 6
  %17 = load ptr, ptr %16, align 8, !tbaa !57
  call void @free(ptr noundef %17) #15
  %18 = load ptr, ptr %2, align 8, !tbaa !46
  call void @free(ptr noundef %18) #15
  ret void
}

; Function Attrs: nounwind uwtable
define i32 @hwloc_distances_remove_by_depth(ptr noundef %0, i32 noundef %1) #0 {
  %3 = alloca i32, align 4
  %4 = alloca ptr, align 8
  %5 = alloca i32, align 4
  %6 = alloca ptr, align 8
  %7 = alloca ptr, align 8
  %8 = alloca i32, align 4
  %9 = alloca i32, align 4
  store ptr %0, ptr %4, align 8, !tbaa !3
  store i32 %1, ptr %5, align 4, !tbaa !38
  call void @llvm.lifetime.start.p0(i64 8, ptr %6) #15
  call void @llvm.lifetime.start.p0(i64 8, ptr %7) #15
  call void @llvm.lifetime.start.p0(i64 4, ptr %8) #15
  %10 = load ptr, ptr %4, align 8, !tbaa !3
  %11 = getelementptr inbounds nuw %struct.hwloc_topology, ptr %10, i32 0, i32 8
  %12 = load i64, ptr %11, align 8, !tbaa !67
  %13 = and i64 %12, 2
  %14 = icmp ne i64 %13, 0
  br i1 %14, label %17, label %15

15:                                               ; preds = %2
  %16 = call ptr @__errno_location() #17
  store i32 22, ptr %16, align 4, !tbaa !38
  store i32 -1, ptr %3, align 4
  store i32 1, ptr %9, align 4
  br label %86

17:                                               ; preds = %2
  %18 = load ptr, ptr %4, align 8, !tbaa !3
  %19 = getelementptr inbounds nuw %struct.hwloc_topology, ptr %18, i32 0, i32 13
  %20 = load ptr, ptr %19, align 8, !tbaa !68
  %21 = icmp ne ptr %20, null
  br i1 %21, label %22, label %24

22:                                               ; preds = %17
  %23 = call ptr @__errno_location() #17
  store i32 1, ptr %23, align 4, !tbaa !38
  store i32 -1, ptr %3, align 4
  store i32 1, ptr %9, align 4
  br label %86

24:                                               ; preds = %17
  %25 = load ptr, ptr %4, align 8, !tbaa !3
  %26 = load i32, ptr %5, align 4, !tbaa !38
  %27 = call i32 @hwloc_get_depth_type(ptr noundef %25, i32 noundef %26) #16
  store i32 %27, ptr %8, align 4, !tbaa !38
  %28 = load i32, ptr %8, align 4, !tbaa !38
  %29 = icmp eq i32 %28, -1
  br i1 %29, label %30, label %32

30:                                               ; preds = %24
  %31 = call ptr @__errno_location() #17
  store i32 22, ptr %31, align 4, !tbaa !38
  store i32 -1, ptr %3, align 4
  store i32 1, ptr %9, align 4
  br label %86

32:                                               ; preds = %24
  %33 = load ptr, ptr %4, align 8, !tbaa !3
  %34 = getelementptr inbounds nuw %struct.hwloc_topology, ptr %33, i32 0, i32 24
  %35 = load ptr, ptr %34, align 8, !tbaa !33
  store ptr %35, ptr %7, align 8, !tbaa !46
  br label %36

36:                                               ; preds = %84, %32
  %37 = load ptr, ptr %7, align 8, !tbaa !46
  store ptr %37, ptr %6, align 8, !tbaa !46
  %38 = icmp ne ptr %37, null
  br i1 %38, label %39, label %85

39:                                               ; preds = %36
  %40 = load ptr, ptr %6, align 8, !tbaa !46
  %41 = getelementptr inbounds nuw %struct.hwloc_internal_distances_s, ptr %40, i32 0, i32 11
  %42 = load ptr, ptr %41, align 8, !tbaa !47
  store ptr %42, ptr %7, align 8, !tbaa !46
  %43 = load ptr, ptr %6, align 8, !tbaa !46
  %44 = getelementptr inbounds nuw %struct.hwloc_internal_distances_s, ptr %43, i32 0, i32 2
  %45 = load i32, ptr %44, align 4, !tbaa !62
  %46 = load i32, ptr %8, align 4, !tbaa !38
  %47 = icmp eq i32 %45, %46
  br i1 %47, label %48, label %84

48:                                               ; preds = %39
  %49 = load ptr, ptr %7, align 8, !tbaa !46
  %50 = icmp ne ptr %49, null
  br i1 %50, label %51, label %57

51:                                               ; preds = %48
  %52 = load ptr, ptr %6, align 8, !tbaa !46
  %53 = getelementptr inbounds nuw %struct.hwloc_internal_distances_s, ptr %52, i32 0, i32 10
  %54 = load ptr, ptr %53, align 8, !tbaa !66
  %55 = load ptr, ptr %7, align 8, !tbaa !46
  %56 = getelementptr inbounds nuw %struct.hwloc_internal_distances_s, ptr %55, i32 0, i32 10
  store ptr %54, ptr %56, align 8, !tbaa !66
  br label %63

57:                                               ; preds = %48
  %58 = load ptr, ptr %6, align 8, !tbaa !46
  %59 = getelementptr inbounds nuw %struct.hwloc_internal_distances_s, ptr %58, i32 0, i32 10
  %60 = load ptr, ptr %59, align 8, !tbaa !66
  %61 = load ptr, ptr %4, align 8, !tbaa !3
  %62 = getelementptr inbounds nuw %struct.hwloc_topology, ptr %61, i32 0, i32 25
  store ptr %60, ptr %62, align 8, !tbaa !8
  br label %63

63:                                               ; preds = %57, %51
  %64 = load ptr, ptr %6, align 8, !tbaa !46
  %65 = getelementptr inbounds nuw %struct.hwloc_internal_distances_s, ptr %64, i32 0, i32 10
  %66 = load ptr, ptr %65, align 8, !tbaa !66
  %67 = icmp ne ptr %66, null
  br i1 %67, label %68, label %76

68:                                               ; preds = %63
  %69 = load ptr, ptr %6, align 8, !tbaa !46
  %70 = getelementptr inbounds nuw %struct.hwloc_internal_distances_s, ptr %69, i32 0, i32 11
  %71 = load ptr, ptr %70, align 8, !tbaa !47
  %72 = load ptr, ptr %6, align 8, !tbaa !46
  %73 = getelementptr inbounds nuw %struct.hwloc_internal_distances_s, ptr %72, i32 0, i32 10
  %74 = load ptr, ptr %73, align 8, !tbaa !66
  %75 = getelementptr inbounds nuw %struct.hwloc_internal_distances_s, ptr %74, i32 0, i32 11
  store ptr %71, ptr %75, align 8, !tbaa !47
  br label %82

76:                                               ; preds = %63
  %77 = load ptr, ptr %6, align 8, !tbaa !46
  %78 = getelementptr inbounds nuw %struct.hwloc_internal_distances_s, ptr %77, i32 0, i32 11
  %79 = load ptr, ptr %78, align 8, !tbaa !47
  %80 = load ptr, ptr %4, align 8, !tbaa !3
  %81 = getelementptr inbounds nuw %struct.hwloc_topology, ptr %80, i32 0, i32 24
  store ptr %79, ptr %81, align 8, !tbaa !33
  br label %82

82:                                               ; preds = %76, %68
  %83 = load ptr, ptr %6, align 8, !tbaa !46
  call void @hwloc_internal_distances_free(ptr noundef %83)
  br label %84

84:                                               ; preds = %82, %39
  br label %36, !llvm.loop !69

85:                                               ; preds = %36
  store i32 0, ptr %3, align 4
  store i32 1, ptr %9, align 4
  br label %86

86:                                               ; preds = %85, %30, %22, %15
  call void @llvm.lifetime.end.p0(i64 4, ptr %8) #15
  call void @llvm.lifetime.end.p0(i64 8, ptr %7) #15
  call void @llvm.lifetime.end.p0(i64 8, ptr %6) #15
  %87 = load i32, ptr %3, align 4
  ret i32 %87
}