; Function Attrs: nounwind uwtable
define range(i32 -1, 1) i32 @hwloc_distances_remove_by_depth(ptr noundef %0, i32 noundef %1) local_unnamed_addr #1 {
  %3 = getelementptr inbounds nuw i8, ptr %0, i64 200
  %4 = load i64, ptr %3, align 8, !tbaa !63
  %5 = and i64 %4, 2
  %.not = icmp eq i64 %5, 0
  br i1 %.not, label %.loopexit.sink.split, label %6

6:                                                ; preds = %2
  %7 = getelementptr inbounds nuw i8, ptr %0, i64 240
  %8 = load ptr, ptr %7, align 8, !tbaa !64
  %.not25 = icmp eq ptr %8, null
  br i1 %.not25, label %9, label %.loopexit.sink.split

9:                                                ; preds = %6
  %10 = tail call i32 @hwloc_get_depth_type(ptr noundef nonnull %0, i32 noundef %1) #28
  %11 = icmp eq i32 %10, -1
  br i1 %11, label %.loopexit.sink.split, label %12

12:                                               ; preds = %9
  %13 = getelementptr inbounds nuw i8, ptr %0, i64 728
  %14 = load ptr, ptr %13, align 8, !tbaa !37
  %.not2629 = icmp eq ptr %14, null
  br i1 %.not2629, label %.loopexit, label %.lr.ph

.lr.ph:                                           ; preds = %12
  %15 = getelementptr inbounds nuw i8, ptr %0, i64 736
  br label %16

16:                                               ; preds = %.lr.ph, %42
  %.02130 = phi ptr [ %14, %.lr.ph ], [ %18, %42 ]
  %17 = getelementptr inbounds nuw i8, ptr %.02130, i64 80
  %18 = load ptr, ptr %17, align 8, !tbaa !38
  %19 = getelementptr inbounds nuw i8, ptr %.02130, i64 12
  %20 = load i32, ptr %19, align 4, !tbaa !56
  %21 = icmp eq i32 %20, %10
  br i1 %21, label %22, label %42

22:                                               ; preds = %16
  %.not27 = icmp eq ptr %18, null
  %23 = getelementptr inbounds nuw i8, ptr %.02130, i64 72
  %24 = load ptr, ptr %23, align 8, !tbaa !61
  br i1 %.not27, label %27, label %25

25:                                               ; preds = %22
  %26 = getelementptr inbounds nuw i8, ptr %18, i64 72
  store ptr %24, ptr %26, align 8, !tbaa !61
  br label %28

27:                                               ; preds = %22
  store ptr %24, ptr %15, align 8, !tbaa !60
  br label %28

28:                                               ; preds = %27, %25
  %.not28 = icmp eq ptr %24, null
  br i1 %.not28, label %31, label %29

29:                                               ; preds = %28
  %30 = getelementptr inbounds nuw i8, ptr %24, i64 80
  store ptr %18, ptr %30, align 8, !tbaa !38
  br label %32

31:                                               ; preds = %28
  store ptr %18, ptr %13, align 8, !tbaa !37
  br label %32

32:                                               ; preds = %31, %29
  %33 = load ptr, ptr %.02130, align 8, !tbaa !43
  tail call void @free(ptr noundef %33) #27
  %34 = getelementptr inbounds nuw i8, ptr %.02130, i64 16
  %35 = load ptr, ptr %34, align 8, !tbaa !44
  tail call void @free(ptr noundef %35) #27
  %36 = getelementptr inbounds nuw i8, ptr %.02130, i64 32
  %37 = load ptr, ptr %36, align 8, !tbaa !45
  tail call void @free(ptr noundef %37) #27
  %38 = getelementptr inbounds nuw i8, ptr %.02130, i64 64
  %39 = load ptr, ptr %38, align 8, !tbaa !46
  tail call void @free(ptr noundef %39) #27
  %40 = getelementptr inbounds nuw i8, ptr %.02130, i64 40
  %41 = load ptr, ptr %40, align 8, !tbaa !47
  tail call void @free(ptr noundef %41) #27
  tail call void @free(ptr noundef nonnull %.02130) #27
  br label %42

42:                                               ; preds = %32, %16
  %.not26 = icmp eq ptr %18, null
  br i1 %.not26, label %.loopexit, label %16, !llvm.loop !65

.loopexit.sink.split:                             ; preds = %9, %6, %2
  %.sink = phi i32 [ 22, %2 ], [ 1, %6 ], [ 22, %9 ]
  %43 = tail call ptr @__errno_location() #30
  store i32 %.sink, ptr %43, align 4, !tbaa !3
  br label %.loopexit

.loopexit:                                        ; preds = %42, %.loopexit.sink.split, %12
  %.0 = phi i32 [ 0, %12 ], [ -1, %.loopexit.sink.split ], [ 0, %42 ]
  ret i32 %.0
}